(lp0
(lp1
(I0
I1
tp2
a(I1
I1
tp3
a(I2
I1
tp4
a(I3
I1
tp5
a(I4
I1
tp6
a(I5
I1
tp7
a(I6
I1
tp8
a(I7
I1
tp9
a(I8
I2
tp10
a(I9
I1
tp11
a(I10
I1
tp12
aa(lp13
(I2
I1
tp14
a(I3
I1
tp15
a(I10
I1
tp16
a(I11
I2
tp17
a(I12
I1
tp18
a(I13
I1
tp19
a(I14
I1
tp20
a(I15
I1
tp21
a(I16
I1
tp22
a(I17
I1
tp23
a(I18
I1
tp24
a(I19
I1
tp25
a(I20
I1
tp26
a(I21
I3
tp27
a(I22
I2
tp28
a(I23
I1
tp29
a(I24
I1
tp30
a(I25
I1
tp31
a(I26
I1
tp32
a(I27
I1
tp33
a(I28
I1
tp34
a(I29
I2
tp35
a(I30
I1
tp36
a(I31
I1
tp37
a(I32
I1
tp38
a(I33
I1
tp39
a(I34
I1
tp40
aa(lp41
(I3
I1
tp42
a(I20
I1
tp43
a(I32
I1
tp44
a(I35
I1
tp45
a(I36
I1
tp46
a(I37
I1
tp47
a(I38
I1
tp48
a(I39
I1
tp49
a(I40
I1
tp50
a(I41
I1
tp51
a(I42
I1
tp52
a(I43
I1
tp53
a(I44
I1
tp54
a(I45
I1
tp55
aa(lp56
(I3
I1
tp57
a(I16
I1
tp58
a(I20
I1
tp59
a(I21
I3
tp60
a(I25
I2
tp61
a(I32
I1
tp62
a(I34
I1
tp63
a(I35
I1
tp64
a(I40
I1
tp65
a(I43
I4
tp66
a(I46
I1
tp67
a(I47
I1
tp68
a(I48
I3
tp69
a(I49
I2
tp70
a(I50
I1
tp71
a(I51
I1
tp72
a(I52
I1
tp73
a(I53
I1
tp74
a(I54
I1
tp75
a(I55
I2
tp76
a(I56
I1
tp77
a(I57
I1
tp78
a(I58
I2
tp79
a(I59
I1
tp80
a(I60
I1
tp81
aa(lp82
(I2
I2
tp83
a(I10
I1
tp84
a(I22
I1
tp85
a(I61
I1
tp86
a(I62
I1
tp87
a(I63
I1
tp88
a(I64
I1
tp89
a(I65
I1
tp90
aa(lp91
(I5
I1
tp92
a(I8
I1
tp93
a(I9
I1
tp94
a(I42
I1
tp95
a(I66
I1
tp96
a(I67
I1
tp97
a(I68
I1
tp98
a(I69
I1
tp99
a(I70
I1
tp100
a(I71
I1
tp101
a(I72
I1
tp102
a(I73
I1
tp103
a(I74
I1
tp104
a(I75
I1
tp105
a(I76
I1
tp106
a(I77
I1
tp107
a(I78
I1
tp108
aa(lp109
(I2
I1
tp110
a(I32
I1
tp111
a(I66
I1
tp112
a(I71
I1
tp113
a(I74
I1
tp114
a(I77
I1
tp115
a(I79
I1
tp116
a(I80
I1
tp117
a(I81
I2
tp118
a(I82
I1
tp119
a(I83
I1
tp120
a(I84
I1
tp121
a(I85
I1
tp122
a(I86
I1
tp123
a(I87
I1
tp124
a(I88
I1
tp125
a(I89
I1
tp126
a(I90
I1
tp127
a(I91
I1
tp128
aa(lp129
(I2
I1
tp130
a(I13
I1
tp131
a(I62
I1
tp132
a(I92
I1
tp133
a(I93
I1
tp134
a(I94
I1
tp135
aa(lp136
(I2
I1
tp137
a(I13
I1
tp138
a(I87
I1
tp139
a(I95
I1
tp140
a(I96
I1
tp141
a(I97
I1
tp142
a(I98
I1
tp143
a(I99
I1
tp144
a(I100
I1
tp145
aa(lp146
(I10
I1
tp147
a(I13
I1
tp148
a(I100
I1
tp149
a(I101
I1
tp150
a(I102
I1
tp151
a(I103
I2
tp152
a(I104
I1
tp153
a(I105
I2
tp154
a(I106
I1
tp155
a(I107
I2
tp156
a(I108
I1
tp157
a(I109
I1
tp158
a(I110
I1
tp159
a(I111
I1
tp160
a(I112
I1
tp161
aa(lp162
(I2
I1
tp163
a(I8
I3
tp164
a(I10
I1
tp165
a(I32
I1
tp166
a(I54
I1
tp167
a(I88
I1
tp168
a(I93
I1
tp169
a(I109
I1
tp170
a(I113
I1
tp171
a(I114
I1
tp172
a(I115
I1
tp173
a(I116
I1
tp174
a(I117
I1
tp175
a(I118
I1
tp176
a(I119
I1
tp177
a(I120
I1
tp178
aa(lp179
(I10
I4
tp180
a(I13
I2
tp181
a(I19
I2
tp182
a(I26
I1
tp183
a(I30
I2
tp184
a(I84
I1
tp185
a(I93
I1
tp186
a(I102
I1
tp187
a(I106
I1
tp188
a(I121
I2
tp189
a(I122
I1
tp190
a(I123
I2
tp191
a(I124
I1
tp192
a(I125
I1
tp193
a(I126
I1
tp194
a(I127
I2
tp195
a(I128
I1
tp196
a(I129
I1
tp197
a(I130
I1
tp198
aa(lp199
(I13
I2
tp200
a(I93
I2
tp201
a(I131
I1
tp202
a(I132
I1
tp203
a(I133
I1
tp204
a(I134
I2
tp205
a(I135
I1
tp206
a(I136
I1
tp207
aa(lp208
(I2
I1
tp209
a(I4
I1
tp210
a(I62
I1
tp211
a(I92
I1
tp212
a(I93
I1
tp213
a(I137
I1
tp214
a(I138
I1
tp215
a(I139
I1
tp216
aa(lp217
(I10
I1
tp218
a(I13
I2
tp219
a(I54
I1
tp220
a(I102
I1
tp221
a(I104
I2
tp222
a(I106
I2
tp223
a(I108
I2
tp224
a(I123
I1
tp225
a(I136
I1
tp226
a(I140
I1
tp227
a(I141
I1
tp228
a(I142
I1
tp229
a(I143
I1
tp230
a(I144
I1
tp231
a(I145
I1
tp232
a(I146
I1
tp233
a(I147
I1
tp234
a(I148
I2
tp235
a(I149
I1
tp236
a(I150
I1
tp237
aa(lp238
(I10
I2
tp239
a(I123
I1
tp240
a(I130
I2
tp241
a(I141
I1
tp242
a(I147
I1
tp243
a(I151
I1
tp244
a(I152
I1
tp245
a(I153
I1
tp246
a(I154
I1
tp247
a(I155
I2
tp248
a(I156
I1
tp249
a(I157
I2
tp250
a(I158
I1
tp251
a(I159
I1
tp252
a(I160
I1
tp253
a(I161
I1
tp254
a(I162
I1
tp255
a(I163
I1
tp256
a(I164
I1
tp257
aa(lp258
(I2
I1
tp259
a(I13
I1
tp260
a(I87
I1
tp261
a(I92
I1
tp262
a(I93
I1
tp263
a(I122
I1
tp264
a(I165
I1
tp265
a(I166
I1
tp266
aa(lp267
(I2
I1
tp268
a(I111
I1
tp269
a(I167
I1
tp270
a(I168
I1
tp271
a(I169
I1
tp272
a(I170
I1
tp273
a(I171
I1
tp274
a(I172
I1
tp275
a(I173
I1
tp276
aa(lp277
(I92
I1
tp278
a(I93
I1
tp279
a(I114
I1
tp280
a(I174
I1
tp281
a(I175
I1
tp282
a(I176
I1
tp283
a(I177
I2
tp284
a(I178
I1
tp285
a(I179
I2
tp286
a(I180
I2
tp287
a(I181
I1
tp288
a(I182
I1
tp289
a(I183
I1
tp290
a(I184
I1
tp291
a(I185
I1
tp292
a(I186
I2
tp293
aa(lp294
(I13
I1
tp295
a(I93
I2
tp296
a(I129
I2
tp297
a(I187
I1
tp298
a(I188
I1
tp299
a(I189
I1
tp300
a(I190
I1
tp301
aa(lp302
(I10
I1
tp303
a(I31
I1
tp304
a(I93
I1
tp305
a(I143
I1
tp306
a(I150
I1
tp307
a(I191
I1
tp308
a(I192
I1
tp309
a(I193
I1
tp310
a(I194
I1
tp311
a(I195
I1
tp312
a(I196
I1
tp313
a(I197
I1
tp314
a(I198
I1
tp315
a(I199
I1
tp316
a(I200
I1
tp317
aa(lp318
(I4
I1
tp319
a(I10
I1
tp320
a(I94
I1
tp321
a(I164
I1
tp322
a(I201
I1
tp323
a(I202
I2
tp324
a(I203
I1
tp325
a(I204
I1
tp326
a(I205
I1
tp327
aa(lp328
(I2
I2
tp329
a(I13
I3
tp330
a(I29
I1
tp331
a(I64
I1
tp332
a(I93
I1
tp333
a(I147
I1
tp334
a(I155
I1
tp335
a(I199
I1
tp336
a(I206
I1
tp337
a(I207
I1
tp338
a(I208
I1
tp339
a(I209
I1
tp340
a(I210
I1
tp341
a(I211
I1
tp342
a(I212
I1
tp343
a(I213
I2
tp344
a(I214
I1
tp345
aa(lp346
(I48
I2
tp347
a(I104
I2
tp348
a(I196
I1
tp349
a(I215
I1
tp350
a(I216
I1
tp351
a(I217
I1
tp352
a(I218
I1
tp353
aa(lp354
(I8
I1
tp355
a(I31
I1
tp356
a(I48
I1
tp357
a(I78
I1
tp358
a(I201
I1
tp359
a(I218
I1
tp360
a(I219
I1
tp361
a(I220
I1
tp362
a(I221
I1
tp363
aa(lp364
(I9
I1
tp365
a(I13
I1
tp366
a(I32
I1
tp367
a(I64
I1
tp368
a(I88
I1
tp369
a(I93
I1
tp370
a(I99
I1
tp371
a(I179
I1
tp372
a(I191
I1
tp373
a(I222
I1
tp374
a(I223
I1
tp375
a(I224
I1
tp376
a(I225
I1
tp377
a(I226
I1
tp378
aa(lp379
(I2
I2
tp380
a(I11
I1
tp381
a(I13
I2
tp382
a(I16
I1
tp383
a(I26
I1
tp384
a(I50
I1
tp385
a(I150
I1
tp386
a(I198
I1
tp387
a(I205
I1
tp388
a(I227
I1
tp389
a(I228
I2
tp390
a(I229
I2
tp391
a(I230
I1
tp392
a(I231
I1
tp393
a(I232
I5
tp394
a(I233
I1
tp395
a(I234
I1
tp396
a(I235
I1
tp397
a(I236
I1
tp398
a(I237
I1
tp399
a(I238
I1
tp400
a(I239
I2
tp401
a(I240
I1
tp402
a(I241
I1
tp403
a(I242
I1
tp404
a(I243
I1
tp405
aa(lp406
(I2
I2
tp407
a(I64
I1
tp408
a(I69
I1
tp409
a(I75
I1
tp410
a(I81
I1
tp411
a(I87
I1
tp412
a(I159
I1
tp413
a(I173
I1
tp414
a(I244
I1
tp415
a(I245
I2
tp416
a(I246
I1
tp417
a(I247
I1
tp418
a(I248
I1
tp419
a(I249
I1
tp420
a(I250
I1
tp421
a(I251
I1
tp422
a(I252
I1
tp423
aa(lp424
(I5
I1
tp425
a(I7
I1
tp426
a(I9
I1
tp427
a(I32
I1
tp428
a(I81
I1
tp429
a(I86
I1
tp430
a(I175
I1
tp431
a(I253
I1
tp432
a(I254
I1
tp433
a(I255
I1
tp434
a(I256
I1
tp435
a(I257
I1
tp436
aa(lp437
(I2
I2
tp438
a(I8
I2
tp439
a(I10
I2
tp440
aa(lp441
(I13
I1
tp442
a(I150
I1
tp443
a(I177
I1
tp444
a(I180
I1
tp445
a(I258
I1
tp446
a(I259
I1
tp447
a(I260
I1
tp448
a(I261
I1
tp449
a(I262
I1
tp450
aa(lp451
(I175
I1
tp452
a(I180
I1
tp453
a(I260
I1
tp454
a(I262
I1
tp455
a(I263
I1
tp456
a(I264
I1
tp457
a(I265
I1
tp458
a(I266
I1
tp459
aa(lp460
(I11
I2
tp461
a(I13
I1
tp462
a(I143
I1
tp463
a(I150
I1
tp464
a(I247
I1
tp465
a(I264
I2
tp466
a(I267
I2
tp467
a(I268
I1
tp468
a(I269
I1
tp469
a(I270
I1
tp470
a(I271
I1
tp471
a(I272
I1
tp472
a(I273
I1
tp473
a(I274
I2
tp474
aa(lp475
(I8
I2
tp476
a(I48
I1
tp477
a(I83
I1
tp478
a(I104
I1
tp479
a(I201
I2
tp480
a(I207
I1
tp481
a(I210
I2
tp482
a(I218
I2
tp483
a(I251
I1
tp484
a(I275
I1
tp485
a(I276
I1
tp486
a(I277
I1
tp487
a(I278
I1
tp488
a(I279
I1
tp489
a(I280
I1
tp490
a(I281
I1
tp491
a(I282
I2
tp492
a(I283
I1
tp493
aa(lp494
(I2
I1
tp495
a(I13
I1
tp496
a(I16
I2
tp497
a(I40
I1
tp498
a(I50
I1
tp499
a(I120
I1
tp500
a(I133
I1
tp501
a(I222
I1
tp502
a(I228
I2
tp503
a(I232
I2
tp504
a(I284
I2
tp505
a(I285
I2
tp506
a(I286
I2
tp507
aa(lp508
(I13
I1
tp509
a(I16
I1
tp510
a(I208
I1
tp511
a(I286
I1
tp512
a(I287
I1
tp513
a(I288
I1
tp514
a(I289
I1
tp515
a(I290
I1
tp516
a(I291
I1
tp517
a(I292
I1
tp518
aa(lp519
(I2
I1
tp520
a(I11
I1
tp521
a(I37
I1
tp522
a(I54
I1
tp523
a(I88
I1
tp524
a(I156
I1
tp525
a(I220
I1
tp526
a(I221
I1
tp527
a(I239
I1
tp528
a(I280
I1
tp529
a(I284
I1
tp530
a(I287
I2
tp531
a(I293
I1
tp532
a(I294
I1
tp533
a(I295
I1
tp534
a(I296
I1
tp535
a(I297
I1
tp536
a(I298
I2
tp537
a(I299
I1
tp538
a(I300
I1
tp539
a(I301
I1
tp540
aa(lp541
(I8
I1
tp542
a(I10
I1
tp543
a(I104
I1
tp544
a(I105
I1
tp545
a(I106
I1
tp546
a(I145
I1
tp547
a(I188
I1
tp548
a(I263
I2
tp549
a(I283
I1
tp550
a(I302
I1
tp551
a(I303
I1
tp552
a(I304
I1
tp553
a(I305
I1
tp554
aa(lp555
(I210
I1
tp556
a(I249
I1
tp557
a(I259
I1
tp558
a(I306
I1
tp559
a(I307
I1
tp560
a(I308
I1
tp561
a(I309
I1
tp562
a(I310
I1
tp563
a(I311
I2
tp564
a(I312
I1
tp565
aa(lp566
(I34
I1
tp567
a(I50
I1
tp568
a(I74
I1
tp569
a(I135
I1
tp570
a(I182
I1
tp571
a(I313
I1
tp572
a(I314
I1
tp573
a(I315
I1
tp574
a(I316
I1
tp575
a(I317
I1
tp576
a(I318
I1
tp577
a(I319
I1
tp578
a(I320
I1
tp579
a(I321
I1
tp580
a(I322
I1
tp581
a(I323
I1
tp582
a(I324
I1
tp583
aa(lp584
(I5
I1
tp585
a(I8
I1
tp586
a(I9
I1
tp587
a(I10
I2
tp588
a(I51
I1
tp589
a(I72
I1
tp590
a(I73
I1
tp591
a(I84
I1
tp592
a(I110
I1
tp593
a(I150
I1
tp594
a(I178
I1
tp595
a(I187
I1
tp596
a(I213
I1
tp597
a(I245
I1
tp598
a(I325
I1
tp599
a(I326
I1
tp600
a(I327
I1
tp601
a(I328
I1
tp602
a(I329
I1
tp603
a(I330
I1
tp604
a(I331
I1
tp605
aa(lp606
(I10
I3
tp607
a(I13
I1
tp608
a(I17
I2
tp609
a(I26
I1
tp610
a(I76
I1
tp611
a(I82
I1
tp612
a(I84
I3
tp613
a(I108
I1
tp614
a(I150
I1
tp615
a(I156
I1
tp616
a(I179
I1
tp617
a(I237
I1
tp618
a(I332
I1
tp619
a(I333
I1
tp620
a(I334
I2
tp621
a(I335
I1
tp622
a(I336
I1
tp623
a(I337
I1
tp624
a(I338
I1
tp625
a(I339
I1
tp626
a(I340
I1
tp627
a(I341
I1
tp628
a(I342
I1
tp629
a(I343
I1
tp630
a(I344
I1
tp631
a(I345
I1
tp632
a(I346
I2
tp633
a(I347
I2
tp634
a(I348
I1
tp635
a(I349
I1
tp636
a(I350
I1
tp637
a(I351
I2
tp638
a(I352
I1
tp639
a(I353
I1
tp640
a(I354
I1
tp641
a(I355
I1
tp642
aa(lp643
(I10
I2
tp644
a(I13
I1
tp645
a(I226
I1
tp646
a(I356
I1
tp647
a(I357
I1
tp648
a(I358
I1
tp649
a(I359
I1
tp650
a(I360
I2
tp651
a(I361
I1
tp652
a(I362
I1
tp653
aa(lp654
(I10
I2
tp655
a(I13
I2
tp656
a(I32
I1
tp657
a(I88
I2
tp658
a(I99
I1
tp659
a(I108
I1
tp660
a(I185
I1
tp661
a(I226
I1
tp662
a(I346
I1
tp663
a(I363
I1
tp664
a(I364
I1
tp665
a(I365
I1
tp666
a(I366
I1
tp667
a(I367
I2
tp668
a(I368
I1
tp669
aa(lp670
(I10
I2
tp671
a(I36
I1
tp672
a(I93
I1
tp673
a(I185
I1
tp674
a(I201
I1
tp675
a(I212
I1
tp676
a(I368
I1
tp677
a(I369
I1
tp678
a(I370
I1
tp679
a(I371
I1
tp680
a(I372
I1
tp681
a(I373
I2
tp682
a(I374
I2
tp683
a(I375
I1
tp684
aa(lp685
(I2
I1
tp686
a(I8
I1
tp687
a(I10
I3
tp688
a(I13
I1
tp689
a(I30
I1
tp690
a(I75
I1
tp691
a(I93
I3
tp692
a(I102
I1
tp693
a(I106
I1
tp694
a(I108
I1
tp695
a(I129
I2
tp696
a(I130
I1
tp697
a(I151
I1
tp698
a(I155
I1
tp699
a(I179
I1
tp700
a(I309
I1
tp701
a(I376
I1
tp702
a(I377
I1
tp703
a(I378
I2
tp704
aa(lp705
(I10
I2
tp706
a(I13
I1
tp707
a(I29
I1
tp708
a(I93
I1
tp709
a(I114
I1
tp710
a(I199
I1
tp711
a(I313
I1
tp712
a(I379
I1
tp713
a(I380
I1
tp714
aa(lp715
(I2
I2
tp716
a(I13
I1
tp717
a(I29
I1
tp718
a(I93
I1
tp719
a(I160
I1
tp720
a(I199
I1
tp721
a(I201
I1
tp722
a(I218
I1
tp723
a(I220
I1
tp724
a(I381
I1
tp725
a(I382
I1
tp726
aa(lp727
(I2
I1
tp728
a(I8
I1
tp729
a(I10
I2
tp730
a(I29
I1
tp731
a(I48
I1
tp732
a(I191
I1
tp733
a(I199
I1
tp734
aa(lp735
(I10
I1
tp736
a(I13
I1
tp737
a(I93
I1
tp738
a(I114
I1
tp739
a(I190
I1
tp740
a(I383
I1
tp741
a(I384
I1
tp742
a(I385
I1
tp743
a(I386
I1
tp744
aa(lp745
(I10
I4
tp746
a(I98
I1
tp747
a(I102
I2
tp748
a(I106
I4
tp749
a(I159
I2
tp750
a(I190
I1
tp751
a(I292
I1
tp752
a(I387
I1
tp753
a(I388
I1
tp754
a(I389
I1
tp755
a(I390
I1
tp756
a(I391
I2
tp757
aa(lp758
(I8
I1
tp759
a(I10
I2
tp760
a(I13
I1
tp761
a(I93
I1
tp762
a(I129
I1
tp763
a(I130
I2
tp764
a(I140
I1
tp765
a(I159
I1
tp766
a(I216
I1
tp767
a(I217
I1
tp768
a(I309
I1
tp769
a(I346
I1
tp770
a(I350
I1
tp771
a(I392
I1
tp772
a(I393
I1
tp773
a(I394
I1
tp774
a(I395
I1
tp775
a(I396
I1
tp776
aa(lp777
(I2
I1
tp778
a(I10
I4
tp779
a(I13
I1
tp780
a(I32
I1
tp781
a(I84
I1
tp782
a(I199
I1
tp783
a(I391
I1
tp784
a(I397
I1
tp785
a(I398
I1
tp786
a(I399
I1
tp787
a(I400
I1
tp788
aa(lp789
(I10
I4
tp790
a(I13
I1
tp791
a(I32
I1
tp792
a(I88
I1
tp793
a(I140
I1
tp794
a(I159
I1
tp795
a(I356
I1
tp796
a(I401
I2
tp797
a(I402
I1
tp798
a(I403
I1
tp799
a(I404
I1
tp800
a(I405
I1
tp801
aa(lp802
(I7
I1
tp803
a(I10
I2
tp804
a(I13
I1
tp805
a(I16
I1
tp806
a(I76
I1
tp807
a(I84
I1
tp808
a(I140
I1
tp809
a(I180
I1
tp810
a(I308
I1
tp811
a(I346
I1
tp812
a(I406
I1
tp813
a(I407
I1
tp814
a(I408
I1
tp815
a(I409
I1
tp816
a(I410
I1
tp817
aa(lp818
(I2
I2
tp819
a(I10
I2
tp820
a(I19
I1
tp821
a(I29
I1
tp822
a(I30
I1
tp823
a(I78
I1
tp824
a(I93
I1
tp825
a(I94
I1
tp826
a(I157
I1
tp827
a(I164
I1
tp828
a(I191
I1
tp829
a(I196
I1
tp830
a(I199
I1
tp831
a(I205
I1
tp832
a(I207
I1
tp833
a(I210
I1
tp834
a(I215
I1
tp835
a(I411
I1
tp836
aa(lp837
(I10
I2
tp838
a(I13
I1
tp839
a(I84
I1
tp840
a(I93
I1
tp841
a(I189
I1
tp842
a(I190
I1
tp843
a(I346
I1
tp844
a(I412
I1
tp845
a(I413
I1
tp846
a(I414
I1
tp847
aa(lp848
(I10
I1
tp849
a(I13
I1
tp850
a(I56
I1
tp851
a(I93
I1
tp852
a(I309
I1
tp853
a(I313
I1
tp854
a(I373
I1
tp855
a(I374
I1
tp856
a(I415
I1
tp857
a(I416
I1
tp858
a(I417
I1
tp859
aa(lp860
(I10
I1
tp861
a(I98
I1
tp862
a(I130
I1
tp863
a(I147
I1
tp864
a(I155
I1
tp865
a(I418
I1
tp866
a(I419
I1
tp867
aa(lp868
(I2
I2
tp869
a(I4
I1
tp870
a(I10
I1
tp871
a(I26
I2
tp872
a(I27
I1
tp873
a(I91
I1
tp874
a(I93
I1
tp875
a(I115
I1
tp876
a(I153
I1
tp877
a(I156
I1
tp878
a(I200
I1
tp879
a(I225
I1
tp880
a(I237
I2
tp881
a(I333
I1
tp882
a(I345
I2
tp883
a(I346
I1
tp884
a(I347
I1
tp885
a(I350
I2
tp886
a(I352
I2
tp887
a(I363
I1
tp888
a(I377
I1
tp889
a(I420
I1
tp890
a(I421
I1
tp891
a(I422
I1
tp892
a(I423
I1
tp893
a(I424
I1
tp894
a(I425
I1
tp895
a(I426
I1
tp896
a(I427
I1
tp897
a(I428
I1
tp898
a(I429
I1
tp899
a(I430
I1
tp900
aa(lp901
(I2
I1
tp902
a(I10
I2
tp903
a(I13
I1
tp904
a(I59
I1
tp905
a(I93
I1
tp906
a(I99
I1
tp907
a(I101
I1
tp908
a(I102
I1
tp909
a(I103
I1
tp910
a(I105
I1
tp911
a(I106
I2
tp912
a(I107
I1
tp913
a(I110
I1
tp914
a(I114
I1
tp915
a(I145
I1
tp916
a(I202
I1
tp917
a(I431
I1
tp918
a(I432
I1
tp919
aa(lp920
(I2
I2
tp921
a(I8
I1
tp922
a(I10
I1
tp923
a(I111
I1
tp924
a(I156
I1
tp925
a(I302
I1
tp926
a(I433
I1
tp927
a(I434
I1
tp928
a(I435
I1
tp929
a(I436
I1
tp930
a(I437
I1
tp931
a(I438
I1
tp932
a(I439
I1
tp933
a(I440
I1
tp934
a(I441
I1
tp935
aa(lp936
(I2
I1
tp937
a(I10
I1
tp938
a(I11
I1
tp939
a(I13
I1
tp940
a(I29
I1
tp941
a(I64
I1
tp942
a(I88
I1
tp943
a(I93
I1
tp944
a(I129
I1
tp945
a(I408
I1
tp946
a(I442
I1
tp947
a(I443
I1
tp948
aa(lp949
(I2
I2
tp950
a(I10
I1
tp951
a(I22
I1
tp952
a(I61
I1
tp953
a(I62
I1
tp954
a(I63
I1
tp955
a(I64
I1
tp956
a(I65
I1
tp957
a(I213
I1
tp958
aa(lp959
(I13
I2
tp960
a(I93
I1
tp961
a(I239
I2
tp962
a(I296
I1
tp963
a(I444
I1
tp964
a(I445
I1
tp965
a(I446
I2
tp966
a(I447
I2
tp967
a(I448
I1
tp968
aa(lp969
(I67
I1
tp970
a(I208
I1
tp971
a(I449
I1
tp972
aa(lp973
(I20
I1
tp974
a(I68
I1
tp975
a(I89
I1
tp976
a(I115
I2
tp977
a(I141
I1
tp978
a(I187
I1
tp979
a(I450
I1
tp980
a(I451
I1
tp981
a(I452
I1
tp982
a(I453
I1
tp983
aa(lp984
(I5
I1
tp985
a(I9
I1
tp986
a(I13
I1
tp987
a(I20
I1
tp988
a(I32
I1
tp989
a(I54
I1
tp990
a(I67
I1
tp991
a(I73
I1
tp992
a(I93
I1
tp993
a(I99
I1
tp994
a(I141
I3
tp995
a(I185
I1
tp996
a(I225
I1
tp997
a(I264
I1
tp998
a(I454
I2
tp999
a(I455
I1
tp1000
a(I456
I2
tp1001
a(I457
I1
tp1002
aa(lp1003
(I2
I2
tp1004
a(I8
I1
tp1005
a(I10
I1
tp1006
a(I111
I1
tp1007
a(I156
I1
tp1008
a(I302
I1
tp1009
a(I433
I1
tp1010
a(I434
I1
tp1011
a(I435
I1
tp1012
a(I436
I1
tp1013
a(I437
I1
tp1014
a(I438
I1
tp1015
a(I439
I1
tp1016
a(I440
I1
tp1017
a(I441
I1
tp1018
aa(lp1019
(I2
I2
tp1020
a(I10
I3
tp1021
a(I17
I1
tp1022
a(I150
I1
tp1023
a(I192
I1
tp1024
a(I269
I1
tp1025
a(I270
I1
tp1026
a(I282
I1
tp1027
a(I309
I1
tp1028
a(I427
I1
tp1029
a(I454
I1
tp1030
a(I458
I1
tp1031
a(I459
I1
tp1032
a(I460
I1
tp1033
a(I461
I1
tp1034
aa(lp1035
(I10
I1
tp1036
a(I88
I1
tp1037
a(I141
I1
tp1038
a(I408
I1
tp1039
a(I445
I1
tp1040
a(I462
I1
tp1041
aa(lp1042
(I2
I1
tp1043
a(I10
I2
tp1044
a(I67
I1
tp1045
a(I106
I2
tp1046
a(I171
I1
tp1047
a(I186
I1
tp1048
a(I208
I1
tp1049
a(I300
I1
tp1050
a(I379
I1
tp1051
a(I398
I1
tp1052
a(I406
I1
tp1053
a(I408
I1
tp1054
a(I444
I1
tp1055
a(I463
I1
tp1056
aa(lp1057
(I2
I2
tp1058
a(I10
I1
tp1059
a(I22
I1
tp1060
a(I29
I1
tp1061
a(I63
I1
tp1062
a(I67
I1
tp1063
a(I190
I1
tp1064
a(I208
I1
tp1065
a(I277
I1
tp1066
a(I449
I1
tp1067
aa(lp1068
(I2
I1
tp1069
a(I10
I1
tp1070
a(I11
I1
tp1071
a(I13
I1
tp1072
a(I29
I1
tp1073
a(I64
I1
tp1074
a(I88
I1
tp1075
a(I93
I1
tp1076
a(I129
I1
tp1077
a(I408
I1
tp1078
a(I442
I1
tp1079
a(I443
I1
tp1080
aa(lp1081
(I2
I2
tp1082
a(I3
I1
tp1083
a(I10
I2
tp1084
a(I29
I1
tp1085
a(I160
I1
tp1086
a(I199
I1
tp1087
a(I213
I1
tp1088
a(I276
I1
tp1089
a(I387
I1
tp1090
aa(lp1091
(I3
I1
tp1092
a(I34
I1
tp1093
a(I37
I1
tp1094
a(I464
I1
tp1095
a(I465
I1
tp1096
a(I466
I1
tp1097
a(I467
I1
tp1098
a(I468
I1
tp1099
a(I469
I1
tp1100
aa(lp1101
(I3
I1
tp1102
a(I13
I1
tp1103
a(I62
I1
tp1104
a(I93
I1
tp1105
a(I186
I1
tp1106
a(I239
I2
tp1107
a(I464
I1
tp1108
a(I466
I1
tp1109
a(I470
I1
tp1110
a(I471
I1
tp1111
a(I472
I1
tp1112
a(I473
I1
tp1113
aa(lp1114
(I2
I1
tp1115
a(I3
I1
tp1116
a(I8
I1
tp1117
a(I10
I1
tp1118
a(I12
I1
tp1119
a(I72
I1
tp1120
a(I82
I1
tp1121
a(I99
I1
tp1122
a(I274
I1
tp1123
a(I350
I1
tp1124
a(I465
I1
tp1125
a(I474
I1
tp1126
a(I475
I1
tp1127
a(I476
I1
tp1128
a(I477
I1
tp1129
a(I478
I1
tp1130
a(I479
I1
tp1131
aa(lp1132
(I2
I3
tp1133
a(I3
I1
tp1134
a(I8
I1
tp1135
a(I10
I1
tp1136
a(I13
I2
tp1137
a(I40
I1
tp1138
a(I50
I1
tp1139
a(I62
I1
tp1140
a(I72
I1
tp1141
a(I88
I1
tp1142
a(I193
I1
tp1143
a(I228
I1
tp1144
a(I232
I1
tp1145
a(I249
I1
tp1146
a(I264
I1
tp1147
a(I286
I1
tp1148
a(I300
I1
tp1149
a(I330
I1
tp1150
a(I403
I1
tp1151
a(I454
I1
tp1152
a(I480
I1
tp1153
aa(lp1154
(I2
I1
tp1155
a(I12
I1
tp1156
a(I13
I1
tp1157
a(I17
I1
tp1158
a(I50
I1
tp1159
a(I93
I1
tp1160
a(I98
I1
tp1161
a(I101
I1
tp1162
a(I264
I1
tp1163
a(I314
I1
tp1164
a(I468
I1
tp1165
a(I473
I1
tp1166
a(I479
I1
tp1167
a(I481
I1
tp1168
a(I482
I1
tp1169
a(I483
I1
tp1170
a(I484
I1
tp1171
aa(lp1172
(I10
I1
tp1173
a(I39
I1
tp1174
a(I84
I1
tp1175
a(I237
I1
tp1176
a(I313
I1
tp1177
a(I333
I1
tp1178
a(I335
I2
tp1179
a(I342
I1
tp1180
a(I346
I1
tp1181
a(I363
I1
tp1182
a(I383
I1
tp1183
a(I485
I1
tp1184
a(I486
I1
tp1185
a(I487
I1
tp1186
aa(lp1187
(I2
I2
tp1188
a(I8
I1
tp1189
a(I10
I3
tp1190
a(I15
I1
tp1191
a(I54
I1
tp1192
a(I99
I1
tp1193
a(I102
I1
tp1194
a(I106
I2
tp1195
a(I115
I1
tp1196
a(I120
I1
tp1197
a(I123
I1
tp1198
a(I139
I1
tp1199
a(I141
I1
tp1200
a(I143
I1
tp1201
a(I147
I1
tp1202
a(I148
I1
tp1203
a(I150
I1
tp1204
a(I153
I1
tp1205
a(I160
I3
tp1206
a(I177
I2
tp1207
a(I179
I1
tp1208
a(I195
I1
tp1209
a(I217
I1
tp1210
a(I226
I1
tp1211
a(I256
I1
tp1212
a(I276
I1
tp1213
a(I279
I2
tp1214
a(I282
I1
tp1215
a(I283
I1
tp1216
a(I377
I1
tp1217
a(I398
I1
tp1218
a(I423
I1
tp1219
a(I431
I2
tp1220
a(I488
I1
tp1221
a(I489
I1
tp1222
a(I490
I1
tp1223
a(I491
I1
tp1224
a(I492
I1
tp1225
a(I493
I1
tp1226
a(I494
I1
tp1227
a(I495
I1
tp1228
a(I496
I1
tp1229
a(I497
I2
tp1230
a(I498
I1
tp1231
a(I499
I1
tp1232
a(I500
I1
tp1233
a(I501
I1
tp1234
a(I502
I1
tp1235
a(I503
I1
tp1236
a(I504
I1
tp1237
a(I505
I1
tp1238
a(I506
I1
tp1239
a(I507
I1
tp1240
a(I508
I2
tp1241
a(I509
I1
tp1242
aa(lp1243
(I2
I1
tp1244
a(I8
I2
tp1245
a(I10
I2
tp1246
a(I104
I1
tp1247
a(I105
I2
tp1248
a(I106
I1
tp1249
a(I145
I1
tp1250
a(I188
I1
tp1251
a(I210
I2
tp1252
a(I263
I2
tp1253
a(I264
I1
tp1254
a(I283
I1
tp1255
a(I302
I1
tp1256
a(I303
I1
tp1257
a(I304
I1
tp1258
a(I305
I1
tp1259
a(I405
I1
tp1260
a(I406
I1
tp1261
a(I510
I1
tp1262
a(I511
I1
tp1263
a(I512
I1
tp1264
a(I513
I1
tp1265
a(I514
I1
tp1266
a(I515
I1
tp1267
a(I516
I1
tp1268
a(I517
I1
tp1269
a(I518
I2
tp1270
a(I519
I1
tp1271
a(I520
I1
tp1272
a(I521
I1
tp1273
a(I522
I1
tp1274
aa(lp1275
(I2
I1
tp1276
a(I3
I1
tp1277
a(I10
I1
tp1278
a(I123
I1
tp1279
a(I202
I1
tp1280
a(I428
I1
tp1281
a(I523
I1
tp1282
a(I524
I1
tp1283
aa(lp1284
(I202
I1
tp1285
a(I316
I1
tp1286
a(I350
I2
tp1287
a(I525
I1
tp1288
a(I526
I1
tp1289
a(I527
I1
tp1290
aa(lp1291
(I2
I2
tp1292
a(I8
I1
tp1293
a(I10
I1
tp1294
a(I13
I1
tp1295
a(I104
I1
tp1296
a(I123
I1
tp1297
a(I200
I1
tp1298
a(I210
I1
tp1299
a(I280
I1
tp1300
a(I518
I1
tp1301
a(I528
I1
tp1302
a(I529
I1
tp1303
a(I530
I1
tp1304
a(I531
I1
tp1305
a(I532
I1
tp1306
a(I533
I1
tp1307
aa(lp1308
(I2
I2
tp1309
a(I111
I1
tp1310
a(I133
I1
tp1311
a(I152
I1
tp1312
a(I208
I1
tp1313
a(I435
I1
tp1314
a(I436
I1
tp1315
a(I438
I1
tp1316
a(I440
I2
tp1317
a(I534
I1
tp1318
a(I535
I1
tp1319
a(I536
I1
tp1320
a(I537
I1
tp1321
a(I538
I2
tp1322
a(I539
I1
tp1323
aa(lp1324
(I54
I3
tp1325
a(I104
I1
tp1326
a(I106
I1
tp1327
a(I159
I1
tp1328
a(I175
I1
tp1329
a(I208
I1
tp1330
a(I398
I1
tp1331
a(I502
I1
tp1332
a(I540
I1
tp1333
aa(lp1334
(I0
I1
tp1335
a(I2
I2
tp1336
a(I10
I1
tp1337
a(I26
I1
tp1338
a(I32
I1
tp1339
a(I38
I1
tp1340
a(I51
I1
tp1341
a(I135
I1
tp1342
a(I159
I1
tp1343
a(I179
I2
tp1344
a(I202
I1
tp1345
a(I213
I1
tp1346
a(I244
I1
tp1347
a(I249
I1
tp1348
a(I256
I1
tp1349
a(I276
I1
tp1350
a(I405
I1
tp1351
a(I431
I2
tp1352
a(I460
I1
tp1353
a(I541
I1
tp1354
a(I542
I1
tp1355
a(I543
I1
tp1356
a(I544
I1
tp1357
a(I545
I1
tp1358
a(I546
I1
tp1359
a(I547
I1
tp1360
aa.